target datalayout = "e-m:e-p270:32:32-p271:32:32-p272:64:64-i64:64-i128:128-f80:128-n8:16:32:64-S128"
target triple = "x86_64-pc-linux-gnu"

%struct.darktable_t = type { %struct.dt_codepath_t, i32, i32, ptr, ptr, ptr, ptr, ptr, ptr, ptr, ptr, ptr, ptr, ptr, ptr, ptr, ptr, ptr, ptr, ptr, ptr, ptr, ptr, ptr, ptr, ptr, ptr, ptr, ptr, ptr, [64 x %struct.dt_pthread_mutex_t], %struct.dt_pthread_mutex_t, %struct.dt_pthread_mutex_t, %struct.dt_pthread_mutex_t, %struct.dt_pthread_mutex_t, %struct.dt_pthread_mutex_t, ptr, ptr, ptr, ptr, ptr, ptr, ptr, ptr, ptr, ptr, ptr, ptr, ptr, %struct.dt_lua_state_t, ptr, double, ptr, i32, [47 x i32], i32, i32, ptr, ptr, %struct.dt_sys_resources_t, %struct.dt_backthumb_t, %struct.dt_gimp_t }
%struct.dt_codepath_t = type { i8, [3 x i8] }
%struct.dt_pthread_mutex_t = type { %union.pthread_mutex_t }
%union.pthread_mutex_t = type { %struct.__pthread_mutex_s }
%struct.__pthread_mutex_s = type { i32, i32, i32, i32, i32, i16, i16, %struct.__pthread_internal_list }
%struct.__pthread_internal_list = type { ptr, ptr }
%struct.dt_lua_state_t = type { i32 }
%struct.dt_sys_resources_t = type { i64, i64, ptr, ptr, i32 }
%struct.dt_backthumb_t = type { double, double, i32, i32, i32, i32 }
%struct.dt_gimp_t = type { i32, ptr, ptr, i32, i32 }
%struct.dt_action_t = type { i32, ptr, ptr, ptr, ptr, ptr }
%struct.dt_control_image_enumerator_t = type { ptr, i32, ptr, i32 }
%struct.dt_control_export_t = type { i32, i32, i32, i32, ptr, i32, i32, i32, [128 x i8], i32, i32, ptr, i32, ptr }
%struct.dt_imageio_module_storage_t = type { %struct.dt_action_t, ptr, ptr, ptr, ptr, ptr, ptr, ptr, ptr, ptr, ptr, ptr, ptr, ptr, ptr, ptr, ptr, ptr, ptr, ptr, ptr, ptr, [128 x i8], ptr, ptr, ptr, i32 }

@darktable = external global %struct.darktable_t, align 8
@.str.47 = private unnamed_addr constant [7 x i8] c"export\00", align 1
@.str.48 = private unnamed_addr constant [129 x i8] c"generated/home/dtcxzyw/WorkSpace/Projects/compilers/llvm-opt-benchmark/bench/darktable/darktable/src/control/jobs/control_jobs.c\00", align 1
@__func__.dt_control_export = private unnamed_addr constant [18 x i8] c"dt_control_export\00", align 1
@.str.49 = private unnamed_addr constant [9 x i8] c"mstorage\00", align 1
@.str.50 = private unnamed_addr constant [69 x i8] c"failed to get parameters from storage module `%s', aborting export..\00", align 1
@.str.51 = private unnamed_addr constant [14 x i8] c"export images\00", align 1

; Function Attrs: nounwind uwtable
define internal void @dt_control_image_enumerator_cleanup(ptr noundef %0) #0 {
  %2 = alloca ptr, align 8
  %3 = alloca ptr, align 8
  store ptr %0, ptr %2, align 8, !tbaa !6
  call void @llvm.lifetime.start.p0(i64 8, ptr %3) #14
  %4 = load ptr, ptr %2, align 8, !tbaa !6
  store ptr %4, ptr %3, align 8, !tbaa !53
  %5 = load ptr, ptr %3, align 8, !tbaa !53
  %6 = getelementptr inbounds nuw %struct.dt_control_image_enumerator_t, ptr %5, i32 0, i32 0
  %7 = load ptr, ptr %6, align 8, !tbaa !57
  call void @g_list_free(ptr noundef %7)
  %8 = load ptr, ptr %3, align 8, !tbaa !53
  %9 = getelementptr inbounds nuw %struct.dt_control_image_enumerator_t, ptr %8, i32 0, i32 0
  store ptr null, ptr %9, align 8, !tbaa !57
  %10 = load ptr, ptr %3, align 8, !tbaa !53
  %11 = getelementptr inbounds nuw %struct.dt_control_image_enumerator_t, ptr %10, i32 0, i32 3
  %12 = load i32, ptr %11, align 8, !tbaa !55
  %13 = icmp ne i32 %12, 0
  br i1 %13, label %14, label %15

14:                                               ; preds = %1
  call void @g_main_context_invoke(ptr noundef null, ptr noundef @_cursor_clear_busy, ptr noundef null)
  br label %15

15:                                               ; preds = %14, %1
  %16 = load ptr, ptr %3, align 8, !tbaa !53
  call void @free(ptr noundef %16) #14
  call void @llvm.lifetime.end.p0(i64 8, ptr %3) #14
  ret void
}

; Function Attrs: nounwind uwtable
define internal ptr @dt_control_image_enumerator_alloc() #0 {
  %1 = alloca ptr, align 8
  %2 = alloca ptr, align 8
  %3 = alloca i32, align 4
  call void @llvm.lifetime.start.p0(i64 8, ptr %2) #14
  %4 = call noalias ptr @calloc(i64 noundef 1, i64 noundef 32) #19
  store ptr %4, ptr %2, align 8, !tbaa !53
  %5 = load ptr, ptr %2, align 8, !tbaa !53
  %6 = icmp ne ptr %5, null
  br i1 %6, label %8, label %7

7:                                                ; preds = %0
  store ptr null, ptr %1, align 8
  store i32 1, ptr %3, align 4
  br label %10

8:                                                ; preds = %0
  %9 = load ptr, ptr %2, align 8, !tbaa !53
  store ptr %9, ptr %1, align 8
  store i32 1, ptr %3, align 4
  br label %10

10:                                               ; preds = %8, %7
  call void @llvm.lifetime.end.p0(i64 8, ptr %2) #14
  %11 = load ptr, ptr %1, align 8
  ret ptr %11
}

; Function Attrs: nounwind uwtable
define internal ptr @dt_control_export_alloc() #0 {
  %1 = alloca ptr, align 8
  %2 = alloca ptr, align 8
  %3 = alloca i32, align 4
  call void @llvm.lifetime.start.p0(i64 8, ptr %2) #14
  %4 = call ptr @dt_control_image_enumerator_alloc()
  store ptr %4, ptr %2, align 8, !tbaa !53
  %5 = load ptr, ptr %2, align 8, !tbaa !53
  %6 = icmp ne ptr %5, null
  br i1 %6, label %8, label %7

7:                                                ; preds = %0
  store ptr null, ptr %1, align 8
  store i32 1, ptr %3, align 4
  br label %20

8:                                                ; preds = %0
  %9 = call noalias ptr @calloc(i64 noundef 1, i64 noundef 200) #19
  %10 = load ptr, ptr %2, align 8, !tbaa !53
  %11 = getelementptr inbounds nuw %struct.dt_control_image_enumerator_t, ptr %10, i32 0, i32 2
  store ptr %9, ptr %11, align 8, !tbaa !59
  %12 = load ptr, ptr %2, align 8, !tbaa !53
  %13 = getelementptr inbounds nuw %struct.dt_control_image_enumerator_t, ptr %12, i32 0, i32 2
  %14 = load ptr, ptr %13, align 8, !tbaa !59
  %15 = icmp ne ptr %14, null
  br i1 %15, label %18, label %16

16:                                               ; preds = %8
  %17 = load ptr, ptr %2, align 8, !tbaa !53
  call void @dt_control_image_enumerator_cleanup(ptr noundef %17)
  store ptr null, ptr %1, align 8
  store i32 1, ptr %3, align 4
  br label %20

18:                                               ; preds = %8
  %19 = load ptr, ptr %2, align 8, !tbaa !53
  store ptr %19, ptr %1, align 8
  store i32 1, ptr %3, align 4
  br label %20

20:                                               ; preds = %18, %16, %7
  call void @llvm.lifetime.end.p0(i64 8, ptr %2) #14
  %21 = load ptr, ptr %1, align 8
  ret ptr %21
}

; Function Attrs: nounwind uwtable
define void @dt_control_export(ptr noundef %0, i32 noundef %1, i32 noundef %2, i32 noundef %3, i32 noundef %4, i32 noundef %5, i32 noundef %6, i32 noundef %7, i32 noundef %8, ptr noundef %9, i32 noundef %10, i32 noundef %11, ptr noundef %12, i32 noundef %13, ptr noundef %14) #0 {
  %16 = alloca ptr, align 8
  %17 = alloca i32, align 4
  %18 = alloca i32, align 4
  %19 = alloca i32, align 4
  %20 = alloca i32, align 4
  %21 = alloca i32, align 4
  %22 = alloca i32, align 4
  %23 = alloca i32, align 4
  %24 = alloca i32, align 4
  %25 = alloca ptr, align 8
  %26 = alloca i32, align 4
  %27 = alloca i32, align 4
  %28 = alloca ptr, align 8
  %29 = alloca i32, align 4
  %30 = alloca ptr, align 8
  %31 = alloca ptr, align 8
  %32 = alloca i32, align 4
  %33 = alloca ptr, align 8
  %34 = alloca ptr, align 8
  %35 = alloca ptr, align 8
  %36 = alloca i32, align 4
  %37 = alloca i32, align 4
  %38 = alloca ptr, align 8
  store ptr %0, ptr %16, align 8, !tbaa !60
  store i32 %1, ptr %17, align 4, !tbaa !50
  store i32 %2, ptr %18, align 4, !tbaa !50
  store i32 %3, ptr %19, align 4, !tbaa !50
  store i32 %4, ptr %20, align 4, !tbaa !50
  store i32 %5, ptr %21, align 4, !tbaa !50
  store i32 %6, ptr %22, align 4, !tbaa !50
  store i32 %7, ptr %23, align 4, !tbaa !50
  store i32 %8, ptr %24, align 4, !tbaa !50
  store ptr %9, ptr %25, align 8, !tbaa !49
  store i32 %10, ptr %26, align 4, !tbaa !50
  store i32 %11, ptr %27, align 4, !tbaa !50
  store ptr %12, ptr %28, align 8, !tbaa !49
  store i32 %13, ptr %29, align 4, !tbaa !50
  store ptr %14, ptr %30, align 8, !tbaa !49
  call void @llvm.lifetime.start.p0(i64 8, ptr %31) #14
  %39 = call ptr (ptr, ptr, ...) @dt_control_job_create(ptr noundef @dt_control_export_job_run, ptr noundef @.str.47)
  store ptr %39, ptr %31, align 8, !tbaa !51
  %40 = load ptr, ptr %31, align 8, !tbaa !51
  %41 = icmp ne ptr %40, null
  br i1 %41, label %43, label %42

42:                                               ; preds = %15
  store i32 1, ptr %32, align 4
  br label %161

43:                                               ; preds = %15
  call void @llvm.lifetime.start.p0(i64 8, ptr %33) #14
  %44 = call ptr @dt_control_export_alloc()
  store ptr %44, ptr %33, align 8, !tbaa !53
  %45 = load ptr, ptr %33, align 8, !tbaa !53
  %46 = icmp ne ptr %45, null
  br i1 %46, label %49, label %47

47:                                               ; preds = %43
  %48 = load ptr, ptr %31, align 8, !tbaa !51
  call void @dt_control_job_dispose(ptr noundef %48)
  store i32 1, ptr %32, align 4
  br label %160

49:                                               ; preds = %43
  %50 = load ptr, ptr %31, align 8, !tbaa !51
  %51 = load ptr, ptr %33, align 8, !tbaa !53
  call void @dt_control_job_set_params(ptr noundef %50, ptr noundef %51, ptr noundef @dt_control_export_cleanup)
  %52 = load ptr, ptr %16, align 8, !tbaa !60
  %53 = load ptr, ptr %33, align 8, !tbaa !53
  %54 = getelementptr inbounds nuw %struct.dt_control_image_enumerator_t, ptr %53, i32 0, i32 0
  store ptr %52, ptr %54, align 8, !tbaa !57
  call void @llvm.lifetime.start.p0(i64 8, ptr %34) #14
  %55 = load ptr, ptr %33, align 8, !tbaa !53
  %56 = getelementptr inbounds nuw %struct.dt_control_image_enumerator_t, ptr %55, i32 0, i32 2
  %57 = load ptr, ptr %56, align 8, !tbaa !59
  store ptr %57, ptr %34, align 8, !tbaa !169
  %58 = load i32, ptr %17, align 4, !tbaa !50
  %59 = load ptr, ptr %34, align 8, !tbaa !169
  %60 = getelementptr inbounds nuw %struct.dt_control_export_t, ptr %59, i32 0, i32 0
  store i32 %58, ptr %60, align 8, !tbaa !171
  %61 = load i32, ptr %18, align 4, !tbaa !50
  %62 = load ptr, ptr %34, align 8, !tbaa !169
  %63 = getelementptr inbounds nuw %struct.dt_control_export_t, ptr %62, i32 0, i32 1
  store i32 %61, ptr %63, align 4, !tbaa !174
  %64 = load i32, ptr %19, align 4, !tbaa !50
  %65 = load ptr, ptr %34, align 8, !tbaa !169
  %66 = getelementptr inbounds nuw %struct.dt_control_export_t, ptr %65, i32 0, i32 2
  store i32 %64, ptr %66, align 8, !tbaa !175
  %67 = load i32, ptr %20, align 4, !tbaa !50
  %68 = load ptr, ptr %34, align 8, !tbaa !169
  %69 = getelementptr inbounds nuw %struct.dt_control_export_t, ptr %68, i32 0, i32 3
  store i32 %67, ptr %69, align 4, !tbaa !176
  call void @llvm.lifetime.start.p0(i64 8, ptr %35) #14
  %70 = load i32, ptr %20, align 4, !tbaa !50
  %71 = call ptr @dt_imageio_get_storage_by_index(i32 noundef %70)
  store ptr %71, ptr %35, align 8, !tbaa !177
  br label %72

72:                                               ; preds = %49
  call void @llvm.lifetime.start.p0(i64 4, ptr %36) #14
  %73 = load ptr, ptr %35, align 8, !tbaa !177
  %74 = icmp ne ptr %73, null
  br i1 %74, label %75, label %76

75:                                               ; preds = %72
  store i32 1, ptr %36, align 4, !tbaa !50
  br label %77

76:                                               ; preds = %72
  store i32 0, ptr %36, align 4, !tbaa !50
  br label %77

77:                                               ; preds = %76, %75
  %78 = load i32, ptr %36, align 4, !tbaa !50
  store i32 %78, ptr %37, align 4, !tbaa !50
  call void @llvm.lifetime.end.p0(i64 4, ptr %36) #14
  %79 = load i32, ptr %37, align 4, !tbaa !50
  %80 = sext i32 %79 to i64
  %81 = call i64 @llvm.expect.i64(i64 %80, i64 1)
  %82 = icmp ne i64 %81, 0
  br i1 %82, label %83, label %84

83:                                               ; preds = %77
  br label %85

84:                                               ; preds = %77
  call void @g_assertion_message_expr(ptr noundef null, ptr noundef @.str.48, i32 noundef 2459, ptr noundef @__func__.dt_control_export, ptr noundef @.str.49) #18
  unreachable

85:                                               ; preds = %83
  br label %86

86:                                               ; preds = %85
  br label %87

87:                                               ; preds = %86
  call void @llvm.lifetime.start.p0(i64 8, ptr %38) #14
  %88 = load ptr, ptr %35, align 8, !tbaa !177
  %89 = getelementptr inbounds nuw %struct.dt_imageio_module_storage_t, ptr %88, i32 0, i32 15
  %90 = load ptr, ptr %89, align 8, !tbaa !179
  %91 = load ptr, ptr %35, align 8, !tbaa !177
  %92 = call ptr %90(ptr noundef %91)
  store ptr %92, ptr %38, align 8, !tbaa !184
  %93 = load ptr, ptr %38, align 8, !tbaa !184
  %94 = icmp eq ptr %93, null
  br i1 %94, label %95, label %103

95:                                               ; preds = %87
  %96 = call ptr @dcgettext(ptr noundef null, ptr noundef @.str.50, i32 noundef 5) #14
  %97 = load ptr, ptr %35, align 8, !tbaa !177
  %98 = getelementptr inbounds nuw %struct.dt_imageio_module_storage_t, ptr %97, i32 0, i32 2
  %99 = load ptr, ptr %98, align 8, !tbaa !185
  %100 = load ptr, ptr %35, align 8, !tbaa !177
  %101 = call ptr %99(ptr noundef %100)
  call void (ptr, ...) @dt_control_log(ptr noundef %96, ptr noundef %101)
  %102 = load ptr, ptr %31, align 8, !tbaa !51
  call void @dt_control_job_dispose(ptr noundef %102)
  store i32 1, ptr %32, align 4
  br label %159

103:                                              ; preds = %87
  %104 = load ptr, ptr %38, align 8, !tbaa !184
  %105 = load ptr, ptr %34, align 8, !tbaa !169
  %106 = getelementptr inbounds nuw %struct.dt_control_export_t, ptr %105, i32 0, i32 4
  store ptr %104, ptr %106, align 8, !tbaa !186
  %107 = load i32, ptr %21, align 4, !tbaa !50
  %108 = load ptr, ptr %34, align 8, !tbaa !169
  %109 = getelementptr inbounds nuw %struct.dt_control_export_t, ptr %108, i32 0, i32 5
  store i32 %107, ptr %109, align 8, !tbaa !187
  %110 = load i32, ptr %24, align 4, !tbaa !50
  %111 = load ptr, ptr %34, align 8, !tbaa !169
  %112 = getelementptr inbounds nuw %struct.dt_control_export_t, ptr %111, i32 0, i32 7
  store i32 %110, ptr %112, align 8, !tbaa !188
  %113 = load i32, ptr %17, align 4, !tbaa !50
  %114 = icmp eq i32 %113, 0
  br i1 %114, label %115, label %122

115:                                              ; preds = %103
  %116 = load i32, ptr %18, align 4, !tbaa !50
  %117 = icmp eq i32 %116, 0
  br i1 %117, label %118, label %122

118:                                              ; preds = %115
  %119 = load i32, ptr %23, align 4, !tbaa !50
  %120 = icmp ne i32 %119, 0
  br i1 %120, label %122, label %121

121:                                              ; preds = %118
  br label %124

122:                                              ; preds = %118, %115, %103
  %123 = load i32, ptr %22, align 4, !tbaa !50
  br label %124

124:                                              ; preds = %122, %121
  %125 = phi i32 [ 0, %121 ], [ %123, %122 ]
  %126 = load ptr, ptr %34, align 8, !tbaa !169
  %127 = getelementptr inbounds nuw %struct.dt_control_export_t, ptr %126, i32 0, i32 6
  store i32 %125, ptr %127, align 4, !tbaa !189
  %128 = load ptr, ptr %34, align 8, !tbaa !169
  %129 = getelementptr inbounds nuw %struct.dt_control_export_t, ptr %128, i32 0, i32 8
  %130 = getelementptr inbounds [128 x i8], ptr %129, i64 0, i64 0
  %131 = load ptr, ptr %25, align 8, !tbaa !49
  %132 = call i64 @g_strlcpy(ptr noundef %130, ptr noundef %131, i64 noundef 128)
  %133 = load i32, ptr %26, align 4, !tbaa !50
  %134 = load ptr, ptr %34, align 8, !tbaa !169
  %135 = getelementptr inbounds nuw %struct.dt_control_export_t, ptr %134, i32 0, i32 9
  store i32 %133, ptr %135, align 4, !tbaa !190
  %136 = load i32, ptr %27, align 4, !tbaa !50
  %137 = load ptr, ptr %34, align 8, !tbaa !169
  %138 = getelementptr inbounds nuw %struct.dt_control_export_t, ptr %137, i32 0, i32 10
  store i32 %136, ptr %138, align 8, !tbaa !191
  %139 = load ptr, ptr %28, align 8, !tbaa !49
  %140 = call noalias ptr @g_strdup(ptr noundef %139)
  %141 = load ptr, ptr %34, align 8, !tbaa !169
  %142 = getelementptr inbounds nuw %struct.dt_control_export_t, ptr %141, i32 0, i32 11
  store ptr %140, ptr %142, align 8, !tbaa !192
  %143 = load i32, ptr %29, align 4, !tbaa !50
  %144 = load ptr, ptr %34, align 8, !tbaa !169
  %145 = getelementptr inbounds nuw %struct.dt_control_export_t, ptr %144, i32 0, i32 12
  store i32 %143, ptr %145, align 8, !tbaa !193
  %146 = load ptr, ptr %30, align 8, !tbaa !49
  %147 = call noalias ptr @g_strdup(ptr noundef %146)
  %148 = load ptr, ptr %34, align 8, !tbaa !169
  %149 = getelementptr inbounds nuw %struct.dt_control_export_t, ptr %148, i32 0, i32 13
  store ptr %147, ptr %149, align 8, !tbaa !194
  %150 = load ptr, ptr %31, align 8, !tbaa !51
  %151 = call ptr @dcgettext(ptr noundef null, ptr noundef @.str.51, i32 noundef 5) #14
  call void @dt_control_job_add_progress(ptr noundef %150, ptr noundef %151, i32 noundef 1)
  %152 = load ptr, ptr getelementptr inbounds nuw (%struct.darktable_t, ptr @darktable, i32 0, i32 12), align 8, !tbaa !10
  %153 = load ptr, ptr %31, align 8, !tbaa !51
  %154 = call i32 @dt_control_add_job(ptr noundef %152, i32 noundef 3, ptr noundef %153)
  %155 = load ptr, ptr %35, align 8, !tbaa !177
  %156 = getelementptr inbounds nuw %struct.dt_imageio_module_storage_t, ptr %155, i32 0, i32 18
  %157 = load ptr, ptr %156, align 8, !tbaa !195
  %158 = load ptr, ptr %35, align 8, !tbaa !177
  call void %157(ptr noundef %158)
  store i32 0, ptr %32, align 4
  br label %159

159:                                              ; preds = %124, %95
  call void @llvm.lifetime.end.p0(i64 8, ptr %38) #14
  call void @llvm.lifetime.end.p0(i64 8, ptr %35) #14
  call void @llvm.lifetime.end.p0(i64 8, ptr %34) #14
  br label %160

160:                                              ; preds = %159, %47
  call void @llvm.lifetime.end.p0(i64 8, ptr %33) #14
  br label %161

161:                                              ; preds = %160, %42
  call void @llvm.lifetime.end.p0(i64 8, ptr %31) #14
  %162 = load i32, ptr %32, align 4
  switch i32 %162, label %164 [
    i32 0, label %163
    i32 1, label %163
  ]

163:                                              ; preds = %161, %161
  ret void

164:                                              ; preds = %161
  unreachable
}