; Function Attrs: nounwind uwtable
define void @dt_control_export(ptr noundef %0, i32 noundef %1, i32 noundef %2, i32 noundef %3, i32 noundef %4, i32 noundef %5, i32 noundef %6, i32 noundef %7, i32 noundef %8, ptr noundef %9, i32 noundef %10, i32 noundef %11, ptr noundef %12, i32 noundef %13, ptr noundef %14) local_unnamed_addr #0 {
  %16 = tail call ptr (ptr, ptr, ...) @dt_control_job_create(ptr noundef nonnull @dt_control_export_job_run, ptr noundef nonnull @.str.47) #17
  %.not = icmp eq ptr %16, null
  br i1 %.not, label %61, label %17

17:                                               ; preds = %15
  %18 = tail call noalias noundef dereferenceable_or_null(32) ptr @calloc(i64 noundef 1, i64 noundef 32) #18
  %.not.i = icmp eq ptr %18, null
  br i1 %.not.i, label %22, label %19

19:                                               ; preds = %17
  %20 = tail call noalias dereferenceable_or_null(200) ptr @calloc(i64 noundef 1, i64 noundef 200) #18
  %21 = getelementptr inbounds nuw i8, ptr %18, i64 16
  store ptr %20, ptr %21, align 8, !tbaa !52
  %.not7.i = icmp eq ptr %20, null
  br i1 %.not7.i, label %dt_control_image_enumerator_cleanup.exit.i, label %dt_control_export_alloc.exit

dt_control_image_enumerator_cleanup.exit.i:       ; preds = %19
  tail call void @g_list_free(ptr noundef null) #17
  tail call void @free(ptr noundef nonnull %18) #17
  br label %22

22:                                               ; preds = %dt_control_image_enumerator_cleanup.exit.i, %17
  tail call void @dt_control_job_dispose(ptr noundef nonnull %16) #17
  br label %61

dt_control_export_alloc.exit:                     ; preds = %19
  tail call void @dt_control_job_set_params(ptr noundef nonnull %16, ptr noundef nonnull %18, ptr noundef nonnull @dt_control_export_cleanup) #17
  store ptr %0, ptr %18, align 8, !tbaa !50
  %23 = load ptr, ptr %21, align 8, !tbaa !52
  store i32 %1, ptr %23, align 8, !tbaa !153
  %24 = getelementptr inbounds nuw i8, ptr %23, i64 4
  store i32 %2, ptr %24, align 4, !tbaa !156
  %25 = getelementptr inbounds nuw i8, ptr %23, i64 8
  store i32 %3, ptr %25, align 8, !tbaa !157
  %26 = getelementptr inbounds nuw i8, ptr %23, i64 12
  store i32 %4, ptr %26, align 4, !tbaa !158
  %27 = tail call ptr @dt_imageio_get_storage_by_index(i32 noundef %4) #17
  %.not59 = icmp eq ptr %27, null
  br i1 %.not59, label %28, label %29, !prof !159

28:                                               ; preds = %dt_control_export_alloc.exit
  tail call void @g_assertion_message_expr(ptr noundef null, ptr noundef nonnull @.str.48, i32 noundef 2459, ptr noundef nonnull @__func__.dt_control_export, ptr noundef nonnull @.str.49) #23
  unreachable

29:                                               ; preds = %dt_control_export_alloc.exit
  %30 = getelementptr inbounds nuw i8, ptr %27, i64 160
  %31 = load ptr, ptr %30, align 8, !tbaa !160
  %32 = tail call ptr %31(ptr noundef nonnull %27) #17
  %33 = icmp eq ptr %32, null
  br i1 %33, label %34, label %39

34:                                               ; preds = %29
  %35 = tail call ptr @dcgettext(ptr noundef null, ptr noundef nonnull @.str.50, i32 noundef 5) #17
  %36 = getelementptr inbounds nuw i8, ptr %27, i64 56
  %37 = load ptr, ptr %36, align 8, !tbaa !165
  %38 = tail call ptr %37(ptr noundef nonnull %27) #17
  tail call void (ptr, ...) @dt_control_log(ptr noundef %35, ptr noundef %38) #17
  tail call void @dt_control_job_dispose(ptr noundef nonnull %16) #17
  br label %61

39:                                               ; preds = %29
  %40 = getelementptr inbounds nuw i8, ptr %23, i64 16
  store ptr %32, ptr %40, align 8, !tbaa !166
  %41 = getelementptr inbounds nuw i8, ptr %23, i64 24
  store i32 %5, ptr %41, align 8, !tbaa !167
  %42 = getelementptr inbounds nuw i8, ptr %23, i64 32
  store i32 %8, ptr %42, align 8, !tbaa !168
  %43 = or i32 %1, %7
  %44 = or i32 %43, %2
  %or.cond3.not = icmp eq i32 %44, 0
  %45 = select i1 %or.cond3.not, i32 0, i32 %6
  %46 = getelementptr inbounds nuw i8, ptr %23, i64 28
  store i32 %45, ptr %46, align 4, !tbaa !169
  %47 = getelementptr inbounds nuw i8, ptr %23, i64 36
  %48 = tail call i64 @g_strlcpy(ptr noundef nonnull %47, ptr noundef %9, i64 noundef 128) #17
  %49 = getelementptr inbounds nuw i8, ptr %23, i64 164
  store i32 %10, ptr %49, align 4, !tbaa !170
  %50 = getelementptr inbounds nuw i8, ptr %23, i64 168
  store i32 %11, ptr %50, align 8, !tbaa !171
  %51 = tail call noalias ptr @g_strdup(ptr noundef %12) #17
  %52 = getelementptr inbounds nuw i8, ptr %23, i64 176
  store ptr %51, ptr %52, align 8, !tbaa !172
  %53 = getelementptr inbounds nuw i8, ptr %23, i64 184
  store i32 %13, ptr %53, align 8, !tbaa !173
  %54 = tail call noalias ptr @g_strdup(ptr noundef %14) #17
  %55 = getelementptr inbounds nuw i8, ptr %23, i64 192
  store ptr %54, ptr %55, align 8, !tbaa !174
  %56 = tail call ptr @dcgettext(ptr noundef null, ptr noundef nonnull @.str.51, i32 noundef 5) #17
  tail call void @dt_control_job_add_progress(ptr noundef nonnull %16, ptr noundef %56, i32 noundef 1) #17
  %57 = load ptr, ptr getelementptr inbounds nuw (i8, ptr @darktable, i64 88), align 8, !tbaa !6
  %58 = tail call i32 @dt_control_add_job(ptr noundef %57, i32 noundef 3, ptr noundef nonnull %16) #17
  %59 = getelementptr inbounds nuw i8, ptr %27, i64 184
  %60 = load ptr, ptr %59, align 8, !tbaa !175
  tail call void %60(ptr noundef nonnull %27) #17
  br label %61

61:                                               ; preds = %22, %39, %34, %15
  ret void
}